Certificate:
    Data:
        Version: 3 (0x2)
        Serial Number: 1 (0x1)
        Signature Algorithm: sha256WithRSAEncryption
        Issuer: C=US, ST=CALIFORNIA, O=ACME, CN=Acme Corporation
        Validity
            Not Before: May 11 13:37:22 2024 GMT
            Not After : May  9 13:37:22 2034 GMT
        Subject: C=US, ST=CALIFORNIA, O=ACME, CN=Acme Corporation
        Subject Public Key Info:
            Public Key Algorithm: rsaEncryption
                Public-Key: (4096 bit)
                Modulus:
                    00:8d:d2:2d:26:24:cc:7a:d6:3b:2a:4b:b7:d7:65:
                    d6:22:3b:9a:a8:2a:a1:4b:4a:10:fb:80:40:fb:aa:
                    21:1c:01:e0:95:c1:1d:22:01:5c:1d:a0:82:68:24:
                    75:14:6b:5f:cf:2d:d4:de:46:89:8b:62:aa:32:34:
                    0a:b5:e4:c0:43:b6:4c:8f:6c:7a:6b:4c:19:47:30:
                    a0:5e:6d:f5:e1:49:3a:d0:b3:9b:01:aa:81:e4:49:
                    e2:2e:3e:95:72:56:1a:f1:8e:7b:c6:77:59:3e:ce:
                    7e:4e:6c:bf:3c:01:ce:58:65:8e:a0:47:20:9b:a7:
                    ed:3c:e9:ed:f6:cf:29:d7:33:00:51:fa:34:d9:8d:
                    09:1c:87:eb:3f:f3:b4:dc:d1:c5:c3:4d:7f:3b:07:
                    57:09:9a:fe:b4:6a:71:cd:2f:08:31:51:c8:da:76:
                    f7:4c:da:8f:ca:60:35:ce:09:43:93:73:c6:ab:b8:
                    d3:b8:86:5e:5b:88:2e:18:95:13:b4:f9:23:dc:18:
                    2a:ee:51:3a:01:d6:2d:08:72:4b:c0:52:b6:ae:9a:
                    e9:d8:2b:d8:88:ff:d2:ba:23:fb:37:c5:a6:9f:e6:
                    04:72:e5:64:a2:19:c1:66:01:42:9f:b9:71:7a:5f:
                    8d:ea:1a:44:47:16:6d:e4:24:86:50:e3:57:17:47:
                    26:c9:02:5c:7d:e2:6e:b2:f2:7c:6b:d3:c2:0c:5f:
                    02:4a:c7:14:da:ba:57:b7:25:04:db:d8:ca:fb:f5:
                    b0:83:8d:a7:03:3c:73:65:e8:37:c3:f8:01:b1:8f:
                    67:a9:40:02:ec:9a:a2:2f:3f:19:12:aa:da:e5:30:
                    08:c2:46:0c:e5:53:ec:0c:61:e1:e3:f8:ed:b8:cc:
                    0b:ff:51:3a:fd:1c:82:58:d2:9f:4d:be:82:25:ff:
                    e7:89:86:0f:5a:b2:d9:39:07:a3:bb:71:66:35:9e:
                    09:17:d8:c6:84:d9:5f:c1:c7:71:51:09:15:86:62:
                    9b:a2:8e:1c:f8:29:e1:9d:a8:d4:9f:a2:bc:9e:1b:
                    31:86:50:0a:f2:dd:a4:f4:71:88:47:00:28:2e:f2:
                    b5:f6:2c:35:b1:cb:d0:6b:9d:85:c9:59:5c:f6:e2:
                    06:90:8a:76:cc:3a:84:04:78:f3:76:67:45:56:be:
                    52:b1:f6:6f:8e:61:cb:4d:7b:16:fa:dd:6a:d9:88:
                    c4:4e:fb:9e:a8:ae:0c:4d:3a:5f:80:fd:56:00:43:
                    64:0d:a3:e8:53:bc:c0:cc:c6:bc:fb:80:fb:26:d8:
                    bb:1e:34:35:96:6f:85:9c:5d:90:d9:b1:e4:85:9a:
                    7f:10:16:9c:6e:05:51:e8:3c:51:c4:b3:53:64:09:
                    31:3b:0b
                Exponent: 65537 (0x10001)
        X509v3 extensions:
            X509v3 Basic Constraints: 
                CA:FALSE
            X509v3 Subject Key Identifier: 
                B6:C3:CE:27:A6:16:B7:6D:88:72:98:9D:CD:5B:8E:70:4A:C7:10:FE
    Signature Algorithm: sha256WithRSAEncryption
    Signature Value:
        21:b8:08:52:06:48:84:f6:ef:9f:7c:91:a4:17:44:a1:fd:33:
        6b:5f:1a:cc:f1:bc:07:4b:c8:d3:a0:c6:00:7a:cd:4e:ca:51:
        4c:e8:0d:17:02:7c:f1:a3:ae:96:89:67:e9:b1:b2:0a:a8:75:
        f3:f0:b5:6d:39:48:aa:0f:3e:c2:20:5a:85:50:5b:84:a0:c3:
        1f:70:77:89:1e:06:9d:a4:da:36:ae:3e:2d:10:84:df:32:bf:
        c6:d0:7d:4e:3e:cd:76:06:8f:45:50:78:90:c1:f3:ab:a4:56:
        03:7d:2a:8a:03:9f:d4:cb:76:40:16:5d:08:55:ab:d3:ca:8b:
        0e:9f:2e:4a:54:f8:83:1b:52:ce:07:76:96:ad:28:18:a1:98:
        5f:7a:ef:81:12:5e:f9:60:5e:4e:9c:b7:aa:da:34:c8:af:fa:
        b5:fa:0d:c6:ee:a1:c8:f4:21:86:8b:6d:62:4c:9e:72:cc:2d:
        8c:f1:b4:6f:ff:99:20:8d:f2:88:4b:3a:c8:b9:de:3d:ec:06:
        90:41:25:12:a9:be:c2:11:4f:32:c9:84:c6:fc:00:b6:da:d6:
        bf:52:94:b9:bc:77:85:04:fa:83:d4:0b:83:6d:91:63:df:fe:
        9d:15:0d:57:ff:63:80:91:25:34:25:31:6f:b4:98:c0:4c:5d:
        2c:2e:22:85:3c:01:5f:d8:a3:24:7d:1d:d4:ee:7b:9e:ba:5b:
        60:e3:43:ba:40:b1:08:56:86:e9:10:66:9e:f1:0e:5f:88:43:
        bc:18:6d:74:ff:4d:72:4b:9c:38:0a:ad:90:97:7f:94:63:af:
        85:08:8a:19:ff:cc:b9:1a:8a:a6:da:33:1b:54:73:33:91:05:
        0e:e7:ff:fc:7f:c8:94:1f:6a:c5:e9:eb:7f:92:9d:22:32:29:
        77:7c:98:50:f1:d8:75:c2:0a:ea:4d:a7:26:89:79:0c:46:ae:
        7a:4c:1e:46:e3:9b:d2:24:3c:5b:4c:8d:10:4c:90:ad:4f:fa:
        ae:da:b8:d0:59:97:05:6f:96:81:2a:77:d2:f7:b1:1a:99:0a:
        1a:3b:25:00:74:26:57:21:7c:bd:8b:2d:30:93:f6:5a:dd:32:
        12:bf:ea:72:ba:c5:cd:51:42:1e:cd:92:a0:cd:ff:fa:70:df:
        32:10:25:1e:d5:4e:ca:1c:9c:42:61:47:ff:de:56:3f:2b:a3:
        81:c6:7f:84:b1:49:60:65:62:e5:e3:64:2b:79:90:40:c9:6f:
        77:7a:52:96:5e:bf:1f:2d:4a:49:34:1a:23:d3:e6:1e:d7:ce:
        d0:34:28:10:21:79:c0:30:55:07:59:c5:2f:53:bd:26:60:e3:
        62:2c:27:60:fd:35:69:0b
-----BEGIN CERTIFICATE-----
MIIFPzCCAyegAwIBAgIBATANBgkqhkiG9w0BAQsFADBMMQswCQYDVQQGEwJVUzET
MBEGA1UECAwKQ0FMSUZPUk5JQTENMAsGA1UECgwEQUNNRTEZMBcGA1UEAwwQQWNt
ZSBDb3Jwb3JhdGlvbjAeFw0yNDA1MTExMzM3MjJaFw0zNDA1MDkxMzM3MjJaMEwx
CzAJBgNVBAYTAlVTMRMwEQYDVQQIDApDQUxJRk9STklBMQ0wCwYDVQQKDARBQ01F
MRkwFwYDVQQDDBBBY21lIENvcnBvcmF0aW9uMIICIjANBgkqhkiG9w0BAQEFAAOC
Ag8AMIICCgKCAgEAjdItJiTMetY7Kku312XWIjuaqCqhS0oQ+4BA+6ohHAHglcEd
IgFcHaCCaCR1FGtfzy3U3kaJi2KqMjQKteTAQ7ZMj2x6a0wZRzCgXm314Uk60LOb
AaqB5EniLj6VclYa8Y57xndZPs5+Tmy/PAHOWGWOoEcgm6ftPOnt9s8p1zMAUfo0
2Y0JHIfrP/O03NHFw01/OwdXCZr+tGpxzS8IMVHI2nb3TNqPymA1zglDk3PGq7jT
uIZeW4guGJUTtPkj3Bgq7lE6AdYtCHJLwFK2rprp2CvYiP/SuiP7N8Wmn+YEcuVk
ohnBZgFCn7lxel+N6hpERxZt5CSGUONXF0cmyQJcfeJusvJ8a9PCDF8CSscU2rpX
tyUE29jK+/Wwg42nAzxzZeg3w/gBsY9nqUAC7JqiLz8ZEqra5TAIwkYM5VPsDGHh
4/jtuMwL/1E6/RyCWNKfTb6CJf/niYYPWrLZOQeju3FmNZ4JF9jGhNlfwcdxUQkV
hmKboo4c+CnhnajUn6K8nhsxhlAK8t2k9HGIRwAoLvK19iw1scvQa52FyVlc9uIG
kIp2zDqEBHjzdmdFVr5SsfZvjmHLTXsW+t1q2YjETvueqK4MTTpfgP1WAENkDaPo
U7zAzMa8+4D7Jti7HjQ1lm+FnF2Q2bHkhZp/EBacbgVR6DxRxLNTZAkxOwsCAwEA
AaMsMCowCQYDVR0TBAIwADAdBgNVHQ4EFgQUtsPOJ6YWt22IcpidzVuOcErHEP4w
DQYJKoZIhvcNAQELBQADggIBACG4CFIGSIT27598kaQXRKH9M2tfGszxvAdLyNOg
xgB6zU7KUUzoDRcCfPGjrpaJZ+mxsgqodfPwtW05SKoPPsIgWoVQW4Sgwx9wd4ke
Bp2k2jauPi0QhN8yv8bQfU4+zXYGj0VQeJDB86ukVgN9KooDn9TLdkAWXQhVq9PK
iw6fLkpU+IMbUs4HdpatKBihmF9674ESXvlgXk6ct6raNMiv+rX6Dcbuocj0IYaL
bWJMnnLMLYzxtG//mSCN8ohLOsi53j3sBpBBJRKpvsIRTzLJhMb8ALba1r9SlLm8
d4UE+oPUC4NtkWPf/p0VDVf/Y4CRJTQlMW+0mMBMXSwuIoU8AV/YoyR9HdTue566
W2DjQ7pAsQhWhukQZp7xDl+IQ7wYbXT/TXJLnDgKrZCXf5Rjr4UIihn/zLkaiqba
MxtUczORBQ7n//x/yJQfasXp63+SnSIyKXd8mFDx2HXCCupNpyaJeQxGrnpMHkbj
m9IkPFtMjRBMkK1P+q7auNBZlwVvloEqd9L3sRqZCho7JQB0JlchfL2LLTCT9lrd
MhK/6nK6xc1RQh7NkqDN//pw3zIQJR7VTsocnEJhR//eVj8ro4HGf4SxSWBlYuXj
ZCt5kEDJb3d6UpZevx8tSkk0GiPT5h7XztA0KBAhecAwVQdZxS9TvSZg42IsJ2D9
NWkL
-----END CERTIFICATE-----
