Certificate:
    Data:
        Version: 3 (0x2)
        Serial Number: 2 (0x2)
        Signature Algorithm: sha256WithRSAEncryption
        Issuer: C=US, ST=CALIFORNIA, O=ACME, CN=Acme Corporation
        Validity
            Not Before: May 11 13:37:22 2024 GMT
            Not After : May  9 13:37:22 2034 GMT
        Subject: C=US, ST=CALIFORNIA, O=ACME, CN=Bob
        Subject Public Key Info:
            Public Key Algorithm: rsaEncryption
                Public-Key: (4096 bit)
                Modulus:
                    00:b6:49:b6:c0:a6:9b:05:65:37:63:8e:e5:a5:c6:
                    05:3e:7f:4e:79:6e:9d:a8:13:58:c3:f9:f4:af:07:
                    39:dd:b2:04:52:a1:97:2e:31:40:f3:f6:c0:dc:8b:
                    12:c5:f3:61:6e:70:ba:92:66:3b:53:65:82:d0:bb:
                    fa:f5:2b:1d:6d:07:75:5e:5c:df:89:70:d1:a0:ba:
                    59:87:73:87:75:d5:b6:ba:ac:29:90:f7:96:43:4a:
                    85:12:2d:29:1a:5f:5e:92:2b:ba:29:a5:e0:db:c2:
                    05:00:c6:5b:da:86:01:6c:fb:7c:1a:76:08:90:3a:
                    67:d2:d2:f3:41:cc:ec:18:e2:ba:f2:fb:51:3b:b7:
                    54:6f:9a:14:09:9b:20:b5:1b:2f:be:e4:06:1f:cc:
                    a0:33:3c:08:45:9e:97:18:d5:6f:61:3a:92:25:e7:
                    c7:f5:95:62:5c:09:2e:b5:44:1f:cb:23:b3:7a:d4:
                    3c:ad:6e:e7:a1:d5:83:f7:e4:92:57:28:87:4f:dc:
                    ed:5b:5e:e9:9d:bf:d4:05:68:64:05:22:d4:d5:e2:
                    24:46:12:75:89:b9:ea:d4:6e:38:cb:f0:4f:41:67:
                    23:7c:4b:b6:d4:c6:28:0e:da:fe:08:18:aa:de:75:
                    2f:53:23:15:4a:46:5a:19:4d:67:29:54:b3:96:0c:
                    86:7f:f6:6e:21:5c:1a:54:d1:ef:ca:d7:59:0d:60:
                    ef:46:6d:cf:ff:1b:85:6a:6a:49:14:b7:a9:17:f2:
                    84:ef:ee:43:d5:07:30:f2:6b:ad:1a:4d:47:bb:f9:
                    25:51:db:c9:d3:1a:a9:f0:9f:d8:3a:6a:59:de:f8:
                    8d:fb:47:e4:3b:94:0b:57:0c:90:cc:d6:ce:37:dc:
                    89:d5:34:82:c5:74:66:fd:ba:1d:30:03:ce:fb:cc:
                    bd:34:8f:6f:69:7b:82:33:52:35:ae:fa:e5:d4:54:
                    9f:44:ab:7e:d3:ea:2b:7b:c6:4a:db:76:4b:e7:2c:
                    59:43:47:c8:8f:2b:b1:0c:83:17:37:ea:28:84:a1:
                    6c:77:90:ad:45:f5:04:c2:cc:48:83:73:e8:9c:60:
                    57:33:6f:08:0b:d3:fb:75:60:dc:5c:cd:8d:d1:71:
                    fe:a4:89:9a:7f:bd:1e:c8:a4:6a:61:82:c1:66:05:
                    38:65:e5:97:35:f5:19:8a:72:ce:e4:71:10:c9:31:
                    4c:0e:29:d4:26:62:27:b9:3d:41:d0:0b:a4:98:82:
                    a7:d3:d6:38:49:d1:0e:42:67:a6:61:45:36:4d:71:
                    07:a5:e5:b7:f9:06:8b:77:6e:e5:ee:50:e7:2f:33:
                    ad:b4:94:ee:73:14:cf:b8:e5:12:3e:8d:65:dd:89:
                    09:9e:7f
                Exponent: 65537 (0x10001)
        X509v3 extensions:
            X509v3 Basic Constraints: 
                CA:FALSE
            X509v3 Subject Key Identifier: 
                DA:AD:72:4D:8A:4C:CB:75:11:58:FE:58:04:0C:DA:E6:4D:E1:4B:83
            X509v3 Authority Key Identifier: 
                B6:C3:CE:27:A6:16:B7:6D:88:72:98:9D:CD:5B:8E:70:4A:C7:10:FE
    Signature Algorithm: sha256WithRSAEncryption
    Signature Value:
        83:60:9b:11:78:ab:77:4e:84:c2:04:e3:d4:8e:fa:f5:8b:25:
        5d:e1:eb:ea:61:a9:b5:83:2d:22:e3:e4:fd:40:aa:2f:e3:ca:
        f8:ce:f7:b8:22:b2:b7:1d:16:a8:a4:03:bf:04:66:1c:b6:79:
        fb:b8:e8:b8:08:0c:94:d5:a0:24:d8:13:a2:12:49:ab:c9:4e:
        b2:1c:a7:2a:12:9b:cc:a9:95:44:7e:5e:58:e1:e8:73:51:74:
        23:29:43:57:70:26:09:42:f3:a5:83:a3:20:0f:d4:a7:eb:30:
        94:ce:b5:a7:b1:41:e9:dc:2b:46:f1:99:32:e3:ce:16:73:9d:
        95:15:07:53:4d:f3:b2:92:2b:2f:d0:49:21:f4:95:11:d3:bc:
        e6:e4:79:72:5a:c7:89:5d:cb:ac:da:ff:44:0b:f6:fb:41:aa:
        c8:8a:a2:cc:e0:2a:b6:87:f4:b2:b6:97:ab:51:6c:45:5e:cd:
        2f:de:49:e5:01:0e:ee:82:43:d3:b9:43:7e:7f:91:42:41:dd:
        70:6d:95:14:e4:75:16:e1:ae:4c:51:73:98:c8:28:55:17:1d:
        ec:0a:1d:a4:8b:f7:b0:a6:50:35:b8:b7:eb:05:ea:b0:f9:72:
        e6:ac:27:b7:19:7e:ec:2c:cd:c2:70:63:30:ea:60:06:ff:0f:
        82:bc:90:55:c2:e9:05:28:ba:69:31:ad:cd:dd:87:38:6f:b8:
        7f:7f:53:33:a8:d9:a3:7f:96:33:d8:81:73:34:f6:33:8b:ab:
        8f:6c:a3:8f:48:f2:02:9f:07:a6:00:cf:47:a8:af:28:4e:b3:
        7e:57:06:61:87:c9:c9:06:06:4b:0d:32:ad:cc:79:e9:4a:6e:
        ec:d4:16:2d:8a:7a:82:9f:89:07:49:1d:60:d1:39:8b:9b:47:
        24:a0:be:2a:7a:2e:fd:50:1d:7e:86:15:f6:12:17:e4:d9:47:
        8d:a0:8a:8b:29:d5:ff:37:08:bc:12:29:72:6b:f4:68:74:b7:
        ea:db:e9:64:7a:22:c1:26:86:a8:1e:ce:49:67:ee:2e:8a:1a:
        7b:d6:b1:92:a5:00:84:e1:d0:39:26:cb:16:28:7b:8f:06:ac:
        1f:c6:75:4b:17:04:78:a4:88:cf:8b:bc:51:e0:0d:69:eb:a2:
        20:c1:a6:29:d5:03:f0:5f:4e:cb:2b:69:00:2d:0a:89:81:c1:
        d8:60:3d:16:75:20:53:5c:d5:e3:ca:2b:81:f0:38:83:11:a2:
        67:ad:b4:24:45:f9:61:ce:cf:0f:1c:a0:e1:53:9d:f8:dd:ff:
        1f:7e:cc:37:1a:4b:4f:e9:98:2d:e1:15:97:5c:1c:e3:9d:1a:
        14:4c:1d:da:fb:18:4f:78
-----BEGIN CERTIFICATE-----
MIIFUzCCAzugAwIBAgIBAjANBgkqhkiG9w0BAQsFADBMMQswCQYDVQQGEwJVUzET
MBEGA1UECAwKQ0FMSUZPUk5JQTENMAsGA1UECgwEQUNNRTEZMBcGA1UEAwwQQWNt
ZSBDb3Jwb3JhdGlvbjAeFw0yNDA1MTExMzM3MjJaFw0zNDA1MDkxMzM3MjJaMD8x
CzAJBgNVBAYTAlVTMRMwEQYDVQQIDApDQUxJRk9STklBMQ0wCwYDVQQKDARBQ01F
MQwwCgYDVQQDDANCb2IwggIiMA0GCSqGSIb3DQEBAQUAA4ICDwAwggIKAoICAQC2
SbbAppsFZTdjjuWlxgU+f055bp2oE1jD+fSvBzndsgRSoZcuMUDz9sDcixLF82Fu
cLqSZjtTZYLQu/r1Kx1tB3VeXN+JcNGgulmHc4d11ba6rCmQ95ZDSoUSLSkaX16S
K7oppeDbwgUAxlvahgFs+3wadgiQOmfS0vNBzOwY4rry+1E7t1RvmhQJmyC1Gy++
5AYfzKAzPAhFnpcY1W9hOpIl58f1lWJcCS61RB/LI7N61Dytbueh1YP35JJXKIdP
3O1bXumdv9QFaGQFItTV4iRGEnWJuerUbjjL8E9BZyN8S7bUxigO2v4IGKredS9T
IxVKRloZTWcpVLOWDIZ/9m4hXBpU0e/K11kNYO9Gbc//G4VqakkUt6kX8oTv7kPV
BzDya60aTUe7+SVR28nTGqnwn9g6alne+I37R+Q7lAtXDJDM1s433InVNILFdGb9
uh0wA877zL00j29pe4IzUjWu+uXUVJ9Eq37T6it7xkrbdkvnLFlDR8iPK7EMgxc3
6iiEoWx3kK1F9QTCzEiDc+icYFczbwgL0/t1YNxczY3Rcf6kiZp/vR7IpGphgsFm
BThl5Zc19RmKcs7kcRDJMUwOKdQmYie5PUHQC6SYgqfT1jhJ0Q5CZ6ZhRTZNcQel
5bf5Bot3buXuUOcvM620lO5zFM+45RI+jWXdiQmefwIDAQABo00wSzAJBgNVHRME
AjAAMB0GA1UdDgQWBBTarXJNikzLdRFY/lgEDNrmTeFLgzAfBgNVHSMEGDAWgBS2
w84npha3bYhymJ3NW45wSscQ/jANBgkqhkiG9w0BAQsFAAOCAgEAg2CbEXird06E
wgTj1I769YslXeHr6mGptYMtIuPk/UCqL+PK+M73uCKytx0WqKQDvwRmHLZ5+7jo
uAgMlNWgJNgTohJJq8lOshynKhKbzKmVRH5eWOHoc1F0IylDV3AmCULzpYOjIA/U
p+swlM61p7FB6dwrRvGZMuPOFnOdlRUHU03zspIrL9BJIfSVEdO85uR5clrHiV3L
rNr/RAv2+0GqyIqizOAqtof0sraXq1FsRV7NL95J5QEO7oJD07lDfn+RQkHdcG2V
FOR1FuGuTFFzmMgoVRcd7AodpIv3sKZQNbi36wXqsPly5qwntxl+7CzNwnBjMOpg
Bv8PgryQVcLpBSi6aTGtzd2HOG+4f39TM6jZo3+WM9iBczT2M4urj2yjj0jyAp8H
pgDPR6ivKE6zflcGYYfJyQYGSw0yrcx56Upu7NQWLYp6gp+JB0kdYNE5i5tHJKC+
Knou/VAdfoYV9hIX5NlHjaCKiynV/zcIvBIpcmv0aHS36tvpZHoiwSaGqB7OSWfu
Looae9axkqUAhOHQOSbLFih7jwasH8Z1SxcEeKSIz4u8UeANaeuiIMGmKdUD8F9O
yytpAC0KiYHB2GA9FnUgU1zV48orgfA4gxGiZ620JEX5Yc7PDxyg4VOd+N3/H37M
NxpLT+mYLeEVl1wc450aFEwd2vsYT3g=
-----END CERTIFICATE-----
